; Function Attrs: nofree norecurse nosync nounwind memory(read, argmem: readwrite, inaccessiblemem: none) uwtable
define range(i32 0, 256) i32 @stbte__redo_available(ptr noundef captures(none) %0) local_unnamed_addr #8 {
  %2 = getelementptr inbounds nuw i8, ptr %0, i64 800876
  %3 = load i8, ptr %2, align 4, !tbaa !45
  %.not = icmp eq i8 %3, 0
  br i1 %.not, label %4, label %._crit_edge

._crit_edge:                                      ; preds = %1
  %.phi.trans.insert = getelementptr inbounds nuw i8, ptr %0, i64 800878
  %.pre = load i8, ptr %.phi.trans.insert, align 2, !tbaa !83
  br label %39

4:                                                ; preds = %1
  %5 = getelementptr inbounds nuw i8, ptr %0, i64 801048
  %6 = load i32, ptr %5, align 8, !tbaa !41
  %7 = icmp sgt i32 %6, 0
  br i1 %7, label %.lr.ph.i.i, label %stbte__undo_find_end.exit.i

.lr.ph.i.i:                                       ; preds = %4
  %8 = getelementptr inbounds nuw i8, ptr %0, i64 801044
  %9 = load i32, ptr %8, align 4, !tbaa !43
  %10 = add i32 %9, 8388607
  %11 = getelementptr inbounds nuw i8, ptr %0, i64 805160
  %12 = load ptr, ptr %11, align 8, !tbaa !27
  br label %13

13:                                               ; preds = %18, %.lr.ph.i.i
  %.020.in.i.i = phi i32 [ %10, %.lr.ph.i.i ], [ %.1.in.i.i, %18 ]
  %.01419.i.i = phi i32 [ 0, %.lr.ph.i.i ], [ %.115.i.i, %18 ]
  %.020.i.i = and i32 %.020.in.i.i, 8388607
  %14 = zext nneg i32 %.020.i.i to i64
  %15 = getelementptr inbounds nuw i16, ptr %12, i64 %14
  %16 = load i16, ptr %15, align 2, !tbaa !21
  %17 = icmp eq i16 %16, -2
  br i1 %17, label %stbte__undo_find_end.exit.i, label %18

18:                                               ; preds = %13
  %19 = icmp sgt i16 %16, 254
  %.115.v.i.i = select i1 %19, i32 5, i32 4
  %.115.i.i = add nuw nsw i32 %.115.v.i.i, %.01419.i.i
  %.1.in.v.i.i = select i1 %19, i32 8388603, i32 8388604
  %.1.in.i.i = add nuw nsw i32 %.1.in.v.i.i, %.020.i.i
  %20 = icmp slt i32 %.115.i.i, %6
  br i1 %20, label %13, label %stbte__undo_find_end.exit.i, !llvm.loop !78

stbte__undo_find_end.exit.i:                      ; preds = %18, %13, %4
  %.0..i.i = phi i8 [ 0, %4 ], [ 1, %13 ], [ 0, %18 ]
  %21 = getelementptr inbounds nuw i8, ptr %0, i64 800877
  store i8 %.0..i.i, ptr %21, align 1, !tbaa !82
  %22 = getelementptr inbounds nuw i8, ptr %0, i64 801052
  %23 = load i32, ptr %22, align 4, !tbaa !42
  %24 = icmp sgt i32 %23, 0
  br i1 %24, label %.lr.ph.i5.i, label %stbte__recompute_undo_available.exit

.lr.ph.i5.i:                                      ; preds = %stbte__undo_find_end.exit.i
  %25 = getelementptr inbounds nuw i8, ptr %0, i64 801044
  %26 = load i32, ptr %25, align 4, !tbaa !43
  %27 = add nsw i32 %26, 1
  %28 = getelementptr inbounds nuw i8, ptr %0, i64 805160
  %29 = load ptr, ptr %28, align 8, !tbaa !27
  br label %30

30:                                               ; preds = %35, %.lr.ph.i5.i
  %.020.in.i6.i = phi i32 [ %27, %.lr.ph.i5.i ], [ %.1.in.i11.i, %35 ]
  %.01419.i7.i = phi i32 [ 0, %.lr.ph.i5.i ], [ %.115.i10.i, %35 ]
  %.020.i8.i = and i32 %.020.in.i6.i, 8388607
  %31 = zext nneg i32 %.020.i8.i to i64
  %32 = getelementptr inbounds nuw i16, ptr %29, i64 %31
  %33 = load i16, ptr %32, align 2, !tbaa !21
  %34 = icmp eq i16 %33, -3
  br i1 %34, label %stbte__recompute_undo_available.exit, label %35

35:                                               ; preds = %30
  %36 = icmp sgt i16 %33, 254
  %.115.v.i9.i = select i1 %36, i32 5, i32 4
  %.115.i10.i = add nuw nsw i32 %.115.v.i9.i, %.01419.i7.i
  %.1.in.i11.i = add nuw nsw i32 %.115.v.i9.i, %.020.i8.i
  %37 = icmp slt i32 %.115.i10.i, %23
  br i1 %37, label %30, label %stbte__recompute_undo_available.exit, !llvm.loop !80

stbte__recompute_undo_available.exit:             ; preds = %30, %35, %stbte__undo_find_end.exit.i
  %.0..i4.i = phi i8 [ 0, %stbte__undo_find_end.exit.i ], [ 1, %30 ], [ 0, %35 ]
  %38 = getelementptr inbounds nuw i8, ptr %0, i64 800878
  store i8 %.0..i4.i, ptr %38, align 2, !tbaa !83
  br label %39

39:                                               ; preds = %._crit_edge, %stbte__recompute_undo_available.exit
  %40 = phi i8 [ %.pre, %._crit_edge ], [ %.0..i4.i, %stbte__recompute_undo_available.exit ]
  %41 = zext i8 %40 to i32
  ret i32 %41
}